target datalayout = "e-m:e-p270:32:32-p271:32:32-p272:64:64-i64:64-i128:128-f80:128-n8:16:32:64-S128"
target triple = "x86_64-pc-linux-gnu"

%"class.icu_77::CollationIterator::CEBuffer" = type { i32, %"class.icu_77::MaybeStackArray.0" }
%"class.icu_77::MaybeStackArray.0" = type { ptr, i32, i8, [40 x i64] }
%"class.icu_77::CollationIterator" = type <{ %"class.icu_77::UObject", ptr, ptr, %"class.icu_77::CollationIterator::CEBuffer", i32, [4 x i8], ptr, i32, i8, [3 x i8] }>
%"class.icu_77::UObject" = type { ptr }

; Function Attrs: mustprogress nounwind uwtable
define linkonce_odr noundef nonnull align 8 dereferenceable(8) ptr @_ZNK6icu_7715MaybeStackArrayIlLi40EEixEl(ptr noundef nonnull align 8 dereferenceable(336) %0, i64 noundef %1) #0 comdat align 2 {
  %3 = alloca ptr, align 8
  %4 = alloca i64, align 8
  store ptr %0, ptr %3, align 8, !tbaa !25
  store i64 %1, ptr %4, align 8, !tbaa !18
  %5 = load ptr, ptr %3, align 8
  %6 = getelementptr inbounds nuw %"class.icu_77::MaybeStackArray.0", ptr %5, i32 0, i32 0
  %7 = load ptr, ptr %6, align 8, !tbaa !35
  %8 = load i64, ptr %4, align 8, !tbaa !18
  %9 = getelementptr inbounds i64, ptr %7, i64 %8
  ret ptr %9
}

; Function Attrs: inlinehint mustprogress uwtable
define linkonce_odr noundef i64 @_ZNK6icu_7717CollationIterator8CEBuffer3getEi(ptr noundef nonnull align 8 dereferenceable(344) %0, i32 noundef %1) #3 comdat align 2 {
  %3 = alloca ptr, align 8
  %4 = alloca i32, align 4
  store ptr %0, ptr %3, align 8, !tbaa !23
  store i32 %1, ptr %4, align 4, !tbaa !14
  %5 = load ptr, ptr %3, align 8
  %6 = getelementptr inbounds nuw %"class.icu_77::CollationIterator::CEBuffer", ptr %5, i32 0, i32 1
  %7 = load i32, ptr %4, align 4, !tbaa !14
  %8 = sext i32 %7 to i64
  %9 = call noundef nonnull align 8 dereferenceable(8) ptr @_ZNK6icu_7715MaybeStackArrayIlLi40EEixEl(ptr noundef nonnull align 8 dereferenceable(336) %6, i64 noundef %8)
  %10 = load i64, ptr %9, align 8, !tbaa !18
  ret i64 %10
}

; Function Attrs: inlinehint mustprogress nounwind uwtable
define internal noundef signext i8 @_ZL9U_SUCCESS10UErrorCode(i32 noundef %0) #2 {
  %2 = alloca i32, align 4
  store i32 %0, ptr %2, align 4, !tbaa !15
  %3 = load i32, ptr %2, align 4, !tbaa !15
  %4 = icmp sle i32 %3, 0
  %5 = zext i1 %4 to i8
  ret i8 %5
}

; Function Attrs: mustprogress uwtable
define noundef i64 @_ZN6icu_7717CollationIterator14nextCEFromCE32EPKNS_13CollationDataEijR10UErrorCode(ptr noundef nonnull align 8 dereferenceable(389) %0, ptr noundef %1, i32 noundef %2, i32 noundef %3, ptr noundef nonnull align 4 dereferenceable(4) %4) #1 align 2 {
  %6 = alloca i64, align 8
  %7 = alloca ptr, align 8
  %8 = alloca ptr, align 8
  %9 = alloca i32, align 4
  %10 = alloca i32, align 4
  %11 = alloca ptr, align 8
  store ptr %0, ptr %7, align 8, !tbaa !37
  store ptr %1, ptr %8, align 8, !tbaa !75
  store i32 %2, ptr %9, align 4, !tbaa !14
  store i32 %3, ptr %10, align 4, !tbaa !14
  store ptr %4, ptr %11, align 8, !tbaa !22
  %12 = load ptr, ptr %7, align 8
  %13 = getelementptr inbounds nuw %"class.icu_77::CollationIterator", ptr %12, i32 0, i32 3
  %14 = getelementptr inbounds nuw %"class.icu_77::CollationIterator::CEBuffer", ptr %13, i32 0, i32 0
  %15 = load i32, ptr %14, align 8, !tbaa !52
  %16 = add nsw i32 %15, -1
  store i32 %16, ptr %14, align 8, !tbaa !52
  %17 = load ptr, ptr %8, align 8, !tbaa !75
  %18 = load i32, ptr %9, align 4, !tbaa !14
  %19 = load i32, ptr %10, align 4, !tbaa !14
  %20 = load ptr, ptr %11, align 8, !tbaa !22
  call void @_ZN6icu_7717CollationIterator17appendCEsFromCE32EPKNS_13CollationDataEijaR10UErrorCode(ptr noundef nonnull align 8 dereferenceable(389) %12, ptr noundef %17, i32 noundef %18, i32 noundef %19, i8 noundef signext 1, ptr noundef nonnull align 4 dereferenceable(4) %20)
  %21 = load ptr, ptr %11, align 8, !tbaa !22
  %22 = load i32, ptr %21, align 4, !tbaa !15
  %23 = call noundef signext i8 @_ZL9U_SUCCESS10UErrorCode(i32 noundef %22)
  %24 = icmp ne i8 %23, 0
  br i1 %24, label %25, label %31

25:                                               ; preds = %5
  %26 = getelementptr inbounds nuw %"class.icu_77::CollationIterator", ptr %12, i32 0, i32 3
  %27 = getelementptr inbounds nuw %"class.icu_77::CollationIterator", ptr %12, i32 0, i32 4
  %28 = load i32, ptr %27, align 8, !tbaa !48
  %29 = add nsw i32 %28, 1
  store i32 %29, ptr %27, align 8, !tbaa !48
  %30 = call noundef i64 @_ZNK6icu_7717CollationIterator8CEBuffer3getEi(ptr noundef nonnull align 8 dereferenceable(344) %26, i32 noundef %28)
  store i64 %30, ptr %6, align 8
  br label %32

31:                                               ; preds = %5
  store i64 1, ptr %6, align 8
  br label %32

32:                                               ; preds = %31, %25
  %33 = load i64, ptr %6, align 8
  ret i64 %33
}