; Function Attrs: mustprogress uwtable
define noundef i64 @_ZN6icu_7717CollationIterator14nextCEFromCE32EPKNS_13CollationDataEijR10UErrorCode(ptr noundef nonnull align 8 dereferenceable(389) %0, ptr noundef readonly captures(none) %1, i32 noundef %2, i32 noundef %3, ptr noundef nonnull align 4 dereferenceable(4) %4) local_unnamed_addr #1 align 2 {
  %6 = getelementptr inbounds nuw i8, ptr %0, i64 24
  %7 = load i32, ptr %6, align 8, !tbaa !37
  %8 = add nsw i32 %7, -1
  store i32 %8, ptr %6, align 8, !tbaa !37
  tail call void @_ZN6icu_7717CollationIterator17appendCEsFromCE32EPKNS_13CollationDataEijaR10UErrorCode(ptr noundef nonnull align 8 dereferenceable(389) %0, ptr noundef %1, i32 noundef %2, i32 noundef %3, i8 noundef signext 1, ptr noundef nonnull align 4 dereferenceable(4) %4)
  %9 = load i32, ptr %4, align 4, !tbaa !13
  %10 = icmp sgt i32 %9, 0
  br i1 %10, label %20, label %11

11:                                               ; preds = %5
  %12 = getelementptr inbounds nuw i8, ptr %0, i64 368
  %13 = load i32, ptr %12, align 8, !tbaa !33
  %14 = add nsw i32 %13, 1
  store i32 %14, ptr %12, align 8, !tbaa !33
  %15 = getelementptr inbounds nuw i8, ptr %0, i64 32
  %16 = sext i32 %13 to i64
  %17 = load ptr, ptr %15, align 8, !tbaa !18
  %18 = getelementptr inbounds i64, ptr %17, i64 %16
  %19 = load i64, ptr %18, align 8, !tbaa !38
  br label %20

20:                                               ; preds = %5, %11
  %.0 = phi i64 [ %19, %11 ], [ 1, %5 ]
  ret i64 %.0
}